; ModuleID = '17/1085.c'
source_filename = "17/1085.c"
target datalayout = "e-m:e-p270:32:32-p271:32:32-p272:64:64-i64:64-f80:128-n8:16:32:64-S128"
target triple = "x86_64-pc-linux-gnu"

@.str = private unnamed_addr constant [3 x i8] c"%s\00", align 1
@.str.1 = private unnamed_addr constant [4 x i8] c"%s\0A\00", align 1

; Function Attrs: noinline nounwind uwtable
define dso_local i32 @main(i32 %0, i8** %1) #0 {
  %3 = alloca i32, align 4
  %4 = alloca i32, align 4
  %5 = alloca i8**, align 8
  %6 = alloca [200 x i8], align 16
  %7 = alloca [200 x i8], align 16
  %8 = alloca i32, align 4
  %9 = alloca i32, align 4
  %10 = alloca i32, align 4
  store i32 0, i32* %3, align 4
  store i32 %0, i32* %4, align 4
  store i8** %1, i8*** %5, align 8
  br label %11

11:                                               ; preds = %107, %2
  %12 = getelementptr inbounds [200 x i8], [200 x i8]* %7, i64 0, i64 0
  %13 = call i32 (i8*, ...) @__isoc99_scanf(i8* getelementptr inbounds ([3 x i8], [3 x i8]* @.str, i64 0, i64 0), i8* %12)
  %14 = icmp ne i32 %13, -1
  br i1 %14, label %15, label %112

15:                                               ; preds = %11
  %16 = getelementptr inbounds [200 x i8], [200 x i8]* %7, i64 0, i64 0
  %17 = call i64 @strlen(i8* %16) #4
  %18 = trunc i64 %17 to i32
  store i32 %18, i32* %8, align 4
  %19 = getelementptr inbounds [200 x i8], [200 x i8]* %6, i64 0, i64 0
  %20 = getelementptr inbounds [200 x i8], [200 x i8]* %7, i64 0, i64 0
  %21 = call i8* @strcpy(i8* %19, i8* %20) #5
  store i32 1, i32* %9, align 4
  br label %22

22:                                               ; preds = %68, %15
  %23 = load i32, i32* %9, align 4
  %24 = load i32, i32* %8, align 4
  %25 = icmp slt i32 %23, %24
  br i1 %25, label %26, label %71

26:                                               ; preds = %22
  store i32 0, i32* %10, align 4
  br label %27

27:                                               ; preds = %64, %26
  %28 = load i32, i32* %10, align 4
  %29 = load i32, i32* %8, align 4
  %30 = icmp slt i32 %28, %29
  br i1 %30, label %31, label %67

31:                                               ; preds = %27
  %32 = load i32, i32* %9, align 4
  %33 = load i32, i32* %10, align 4
  %34 = add nsw i32 %32, %33
  %35 = load i32, i32* %8, align 4
  %36 = icmp slt i32 %34, %35
  br i1 %36, label %37, label %63

37:                                               ; preds = %31
  %38 = load i32, i32* %10, align 4
  %39 = sext i32 %38 to i64
  %40 = getelementptr inbounds [200 x i8], [200 x i8]* %6, i64 0, i64 %39
  %41 = load i8, i8* %40, align 1
  %42 = sext i8 %41 to i32
  %43 = icmp eq i32 %42, 40
  br i1 %43, label %44, label %62

44:                                               ; preds = %37
  %45 = load i32, i32* %10, align 4
  %46 = load i32, i32* %9, align 4
  %47 = add nsw i32 %45, %46
  %48 = sext i32 %47 to i64
  %49 = getelementptr inbounds [200 x i8], [200 x i8]* %6, i64 0, i64 %48
  %50 = load i8, i8* %49, align 1
  %51 = sext i8 %50 to i32
  %52 = icmp eq i32 %51, 41
  br i1 %52, label %53, label %62

53:                                               ; preds = %44
  %54 = load i32, i32* %10, align 4
  %55 = sext i32 %54 to i64
  %56 = getelementptr inbounds [200 x i8], [200 x i8]* %6, i64 0, i64 %55
  store i8 97, i8* %56, align 1
  %57 = load i32, i32* %10, align 4
  %58 = load i32, i32* %9, align 4
  %59 = add nsw i32 %57, %58
  %60 = sext i32 %59 to i64
  %61 = getelementptr inbounds [200 x i8], [200 x i8]* %6, i64 0, i64 %60
  store i8 97, i8* %61, align 1
  br label %62

62:                                               ; preds = %53, %44, %37
  br label %63

63:                                               ; preds = %62, %31
  br label %64

64:                                               ; preds = %63
  %65 = load i32, i32* %10, align 4
  %66 = add nsw i32 %65, 1
  store i32 %66, i32* %10, align 4
  br label %27

67:                                               ; preds = %27
  br label %68

68:                                               ; preds = %67
  %69 = load i32, i32* %9, align 4
  %70 = add nsw i32 %69, 1
  store i32 %70, i32* %9, align 4
  br label %22

71:                                               ; preds = %22
  store i32 0, i32* %9, align 4
  br label %72

72:                                               ; preds = %104, %71
  %73 = load i32, i32* %9, align 4
  %74 = load i32, i32* %8, align 4
  %75 = icmp slt i32 %73, %74
  br i1 %75, label %76, label %107

76:                                               ; preds = %72
  %77 = load i32, i32* %9, align 4
  %78 = sext i32 %77 to i64
  %79 = getelementptr inbounds [200 x i8], [200 x i8]* %6, i64 0, i64 %78
  %80 = load i8, i8* %79, align 1
  %81 = sext i8 %80 to i32
  %82 = icmp eq i32 %81, 40
  br i1 %82, label %83, label %87

83:                                               ; preds = %76
  %84 = load i32, i32* %9, align 4
  %85 = sext i32 %84 to i64
  %86 = getelementptr inbounds [200 x i8], [200 x i8]* %6, i64 0, i64 %85
  store i8 36, i8* %86, align 1
  br label %103

87:                                               ; preds = %76
  %88 = load i32, i32* %9, align 4
  %89 = sext i32 %88 to i64
  %90 = getelementptr inbounds [200 x i8], [200 x i8]* %6, i64 0, i64 %89
  %91 = load i8, i8* %90, align 1
  %92 = sext i8 %91 to i32
  %93 = icmp eq i32 %92, 41
  br i1 %93, label %94, label %98

94:                                               ; preds = %87
  %95 = load i32, i32* %9, align 4
  %96 = sext i32 %95 to i64
  %97 = getelementptr inbounds [200 x i8], [200 x i8]* %6, i64 0, i64 %96
  store i8 63, i8* %97, align 1
  br label %102

98:                                               ; preds = %87
  %99 = load i32, i32* %9, align 4
  %100 = sext i32 %99 to i64
  %101 = getelementptr inbounds [200 x i8], [200 x i8]* %6, i64 0, i64 %100
  store i8 32, i8* %101, align 1
  br label %102

102:                                              ; preds = %98, %94
  br label %103

103:                                              ; preds = %102, %83
  br label %104

104:                                              ; preds = %103
  %105 = load i32, i32* %9, align 4
  %106 = add nsw i32 %105, 1
  store i32 %106, i32* %9, align 4
  br label %72

107:                                              ; preds = %72
  %108 = getelementptr inbounds [200 x i8], [200 x i8]* %7, i64 0, i64 0
  %109 = call i32 (i8*, ...) @printf(i8* getelementptr inbounds ([4 x i8], [4 x i8]* @.str.1, i64 0, i64 0), i8* %108)
  %110 = getelementptr inbounds [200 x i8], [200 x i8]* %6, i64 0, i64 0
  %111 = call i32 (i8*, ...) @printf(i8* getelementptr inbounds ([4 x i8], [4 x i8]* @.str.1, i64 0, i64 0), i8* %110)
  br label %11

112:                                              ; preds = %11
  ret i32 0
}

declare dso_local i32 @__isoc99_scanf(i8*, ...) #1

; Function Attrs: nounwind readonly
declare dso_local i64 @strlen(i8*) #2

; Function Attrs: nounwind
declare dso_local i8* @strcpy(i8*, i8*) #3

declare dso_local i32 @printf(i8*, ...) #1


!llvm.module.flags = !{!0}
!llvm.ident = !{!1}

!0 = !{i32 1, !"wchar_size", i32 4}
!1 = !{!"clang version 10.0.0-4ubuntu1 "}
